; ModuleID = '47/5258.c'
source_filename = "47/5258.c"
target datalayout = "e-m:e-p270:32:32-p271:32:32-p272:64:64-i64:64-f80:128-n8:16:32:64-S128"
target triple = "x86_64-pc-linux-gnu"

@.str = private unnamed_addr constant [3 x i8] c"%d\00", align 1
@.str.1 = private unnamed_addr constant [4 x i8] c"%d \00", align 1

; Function Attrs: noinline nounwind uwtable
define dso_local void @main() #0 {
  %1 = alloca i32, align 4
  %2 = alloca [100 x i32], align 16
  %3 = alloca i32*, align 8
  %4 = alloca i32*, align 8
  %5 = alloca i32, align 4
  %6 = alloca i32, align 4
  %7 = call i32 (i8*, ...) @__isoc99_scanf(i8* getelementptr inbounds ([3 x i8], [3 x i8]* @.str, i64 0, i64 0), i32* %1)
  store i32 0, i32* %5, align 4
  br label %8

8:                                                ; preds = %17, %0
  %9 = load i32, i32* %5, align 4
  %10 = load i32, i32* %1, align 4
  %11 = icmp slt i32 %9, %10
  br i1 %11, label %12, label %20

12:                                               ; preds = %8
  %13 = load i32, i32* %5, align 4
  %14 = sext i32 %13 to i64
  %15 = getelementptr inbounds [100 x i32], [100 x i32]* %2, i64 0, i64 %14
  %16 = call i32 (i8*, ...) @__isoc99_scanf(i8* getelementptr inbounds ([3 x i8], [3 x i8]* @.str, i64 0, i64 0), i32* %15)
  br label %17

17:                                               ; preds = %12
  %18 = load i32, i32* %5, align 4
  %19 = add nsw i32 %18, 1
  store i32 %19, i32* %5, align 4
  br label %8

20:                                               ; preds = %8
  %21 = getelementptr inbounds [100 x i32], [100 x i32]* %2, i64 0, i64 0
  store i32* %21, i32** %3, align 8
  %22 = getelementptr inbounds [100 x i32], [100 x i32]* %2, i64 0, i64 0
  %23 = load i32, i32* %1, align 4
  %24 = sext i32 %23 to i64
  %25 = getelementptr inbounds i32, i32* %22, i64 %24
  %26 = getelementptr inbounds i32, i32* %25, i64 -1
  store i32* %26, i32** %4, align 8
  br label %27

27:                                               ; preds = %43, %20
  %28 = load i32*, i32** %3, align 8
  %29 = getelementptr inbounds [100 x i32], [100 x i32]* %2, i64 0, i64 0
  %30 = load i32, i32* %1, align 4
  %31 = sdiv i32 %30, 2
  %32 = sext i32 %31 to i64
  %33 = getelementptr inbounds i32, i32* %29, i64 %32
  %34 = icmp ult i32* %28, %33
  br i1 %34, label %35, label %48

35:                                               ; preds = %27
  %36 = load i32*, i32** %3, align 8
  %37 = load i32, i32* %36, align 4
  store i32 %37, i32* %6, align 4
  %38 = load i32*, i32** %4, align 8
  %39 = load i32, i32* %38, align 4
  %40 = load i32*, i32** %3, align 8
  store i32 %39, i32* %40, align 4
  %41 = load i32, i32* %6, align 4
  %42 = load i32*, i32** %4, align 8
  store i32 %41, i32* %42, align 4
  br label %43

43:                                               ; preds = %35
  %44 = load i32*, i32** %3, align 8
  %45 = getelementptr inbounds i32, i32* %44, i32 1
  store i32* %45, i32** %3, align 8
  %46 = load i32*, i32** %4, align 8
  %47 = getelementptr inbounds i32, i32* %46, i32 -1
  store i32* %47, i32** %4, align 8
  br label %27

48:                                               ; preds = %27
  %49 = getelementptr inbounds [100 x i32], [100 x i32]* %2, i64 0, i64 0
  store i32* %49, i32** %3, align 8
  br label %50

50:                                               ; preds = %62, %48
  %51 = load i32*, i32** %3, align 8
  %52 = getelementptr inbounds [100 x i32], [100 x i32]* %2, i64 0, i64 0
  %53 = load i32, i32* %1, align 4
  %54 = sext i32 %53 to i64
  %55 = getelementptr inbounds i32, i32* %52, i64 %54
  %56 = getelementptr inbounds i32, i32* %55, i64 -1
  %57 = icmp ult i32* %51, %56
  br i1 %57, label %58, label %65

58:                                               ; preds = %50
  %59 = load i32*, i32** %3, align 8
  %60 = load i32, i32* %59, align 4
  %61 = call i32 (i8*, ...) @printf(i8* getelementptr inbounds ([4 x i8], [4 x i8]* @.str.1, i64 0, i64 0), i32 %60)
  br label %62

62:                                               ; preds = %58
  %63 = load i32*, i32** %3, align 8
  %64 = getelementptr inbounds i32, i32* %63, i32 1
  store i32* %64, i32** %3, align 8
  br label %50

65:                                               ; preds = %50
  %66 = load i32*, i32** %3, align 8
  %67 = load i32, i32* %66, align 4
  %68 = call i32 (i8*, ...) @printf(i8* getelementptr inbounds ([3 x i8], [3 x i8]* @.str, i64 0, i64 0), i32 %67)
  ret void
}

declare dso_local i32 @__isoc99_scanf(i8*, ...) #1

declare dso_local i32 @printf(i8*, ...) #1


!llvm.module.flags = !{!0}
!llvm.ident = !{!1}

!0 = !{i32 1, !"wchar_size", i32 4}
!1 = !{!"clang version 10.0.0-4ubuntu1 "}
